target datalayout = "e-m:e-p270:32:32-p271:32:32-p272:64:64-i64:64-i128:128-f80:128-n8:16:32:64-S128"
target triple = "x86_64-pc-linux-gnu"

%class.insn_t = type { i64 }
%class.insn_trap_t = type { %class.trap_t, i8, i64 }
%class.trap_t = type { ptr, i64 }

@_ZTI24trap_illegal_instruction = linkonce_odr constant { ptr, ptr, ptr } { ptr getelementptr inbounds (ptr, ptr @_ZTVN10__cxxabiv120__si_class_type_infoE, i64 2), ptr @_ZTS24trap_illegal_instruction, ptr @_ZTI11insn_trap_t }, comdat, align 8

; Function Attrs: mustprogress nounwind uwtable
define linkonce_odr void @_ZN6trap_tC2Em(ptr noundef nonnull align 8 dereferenceable(16) %0, i64 noundef %1) unnamed_addr #6 comdat align 2 {
  %3 = alloca ptr, align 8
  %4 = alloca i64, align 8
  store ptr %0, ptr %3, align 8, !tbaa !18
  store i64 %1, ptr %4, align 8, !tbaa !8
  %5 = load ptr, ptr %3, align 8
  store ptr getelementptr inbounds inrange(-16, 80) ({ [12 x ptr] }, ptr @_ZTV6trap_t, i32 0, i32 0, i32 2), ptr %5, align 8, !tbaa !16
  %6 = getelementptr inbounds nuw %class.trap_t, ptr %5, i32 0, i32 1
  %7 = load i64, ptr %4, align 8, !tbaa !8
  store i64 %7, ptr %6, align 8, !tbaa !42
  ret void
}

; Function Attrs: mustprogress uwtable
define linkonce_odr void @_ZN11insn_trap_tC2Embm(ptr noundef nonnull align 8 dereferenceable(32) %0, i64 noundef %1, i1 noundef zeroext %2, i64 noundef %3) unnamed_addr #4 comdat align 2 {
  %5 = alloca ptr, align 8
  %6 = alloca i64, align 8
  %7 = alloca i8, align 1
  %8 = alloca i64, align 8
  store ptr %0, ptr %5, align 8, !tbaa !32
  store i64 %1, ptr %6, align 8, !tbaa !8
  %9 = zext i1 %2 to i8
  store i8 %9, ptr %7, align 1, !tbaa !34
  store i64 %3, ptr %8, align 8, !tbaa !8
  %10 = load ptr, ptr %5, align 8
  %11 = load i64, ptr %6, align 8, !tbaa !8
  call void @_ZN6trap_tC2Em(ptr noundef nonnull align 8 dereferenceable(16) %10, i64 noundef %11)
  store ptr getelementptr inbounds inrange(-16, 80) ({ [12 x ptr] }, ptr @_ZTV11insn_trap_t, i32 0, i32 0, i32 2), ptr %10, align 8, !tbaa !16
  %12 = getelementptr inbounds nuw %class.insn_trap_t, ptr %10, i32 0, i32 1
  %13 = load i8, ptr %7, align 1, !tbaa !34, !range !36, !noundef !37
  %14 = trunc i8 %13 to i1
  %15 = zext i1 %14 to i8
  store i8 %15, ptr %12, align 8, !tbaa !38
  %16 = getelementptr inbounds nuw %class.insn_trap_t, ptr %10, i32 0, i32 2
  %17 = load i64, ptr %8, align 8, !tbaa !8
  store i64 %17, ptr %16, align 8, !tbaa !41
  ret void
}

; Function Attrs: mustprogress uwtable
define linkonce_odr void @_ZN24trap_illegal_instructionC2Em(ptr noundef nonnull align 8 dereferenceable(32) %0, i64 noundef %1) unnamed_addr #4 comdat align 2 {
  %3 = alloca ptr, align 8
  %4 = alloca i64, align 8
  store ptr %0, ptr %3, align 8, !tbaa !14
  store i64 %1, ptr %4, align 8, !tbaa !8
  %5 = load ptr, ptr %3, align 8
  %6 = load i64, ptr %4, align 8, !tbaa !8
  call void @_ZN11insn_trap_tC2Embm(ptr noundef nonnull align 8 dereferenceable(32) %5, i64 noundef 2, i1 noundef zeroext false, i64 noundef %6)
  store ptr getelementptr inbounds inrange(-16, 80) ({ [12 x ptr] }, ptr @_ZTV24trap_illegal_instruction, i32 0, i32 0, i32 2), ptr %5, align 8, !tbaa !16
  ret void
}

; Function Attrs: mustprogress nounwind uwtable
define linkonce_odr noundef i64 @_ZN6insn_t4bitsEv(ptr noundef nonnull align 8 dereferenceable(8) %0) #6 comdat align 2 {
  %2 = alloca ptr, align 8
  store ptr %0, ptr %2, align 8, !tbaa !10
  %3 = load ptr, ptr %2, align 8
  %4 = getelementptr inbounds nuw %class.insn_t, ptr %3, i32 0, i32 0
  %5 = load i64, ptr %4, align 8, !tbaa !12
  ret i64 %5
}

; Function Attrs: mustprogress uwtable
define noundef i64 @_Z18logged_rv32e_srliwP11processor_t6insn_tm(ptr noundef %0, i64 %1, i64 noundef %2) #4 personality ptr @__gxx_personality_v0 {
  %4 = alloca %class.insn_t, align 8
  %5 = alloca ptr, align 8
  %6 = alloca i64, align 8
  %7 = alloca i64, align 8
  %8 = alloca ptr, align 8
  %9 = alloca i32, align 4
  %10 = getelementptr inbounds nuw %class.insn_t, ptr %4, i32 0, i32 0
  store i64 %1, ptr %10, align 8
  store ptr %0, ptr %5, align 8, !tbaa !3
  store i64 %2, ptr %6, align 8, !tbaa !8
  call void @llvm.lifetime.start.p0(i64 8, ptr %7) #3
  %11 = load i64, ptr %6, align 8, !tbaa !8
  %12 = add i64 %11, 4
  %13 = shl i64 %12, 32
  %14 = ashr i64 %13, 32
  store i64 %14, ptr %7, align 8, !tbaa !8
  %15 = call ptr @__cxa_allocate_exception(i64 32) #3
  %16 = invoke noundef i64 @_ZN6insn_t4bitsEv(ptr noundef nonnull align 8 dereferenceable(8) %4)
          to label %17 unwind label %19

17:                                               ; preds = %3
  invoke void @_ZN24trap_illegal_instructionC2Em(ptr noundef nonnull align 8 dereferenceable(32) %15, i64 noundef %16)
          to label %18 unwind label %19

18:                                               ; preds = %17
  call void @__cxa_throw(ptr %15, ptr @_ZTI24trap_illegal_instruction, ptr @_ZN6trap_tD2Ev) #19
  unreachable

19:                                               ; preds = %17, %3
  %20 = landingpad { ptr, i32 }
          cleanup
  %21 = extractvalue { ptr, i32 } %20, 0
  store ptr %21, ptr %8, align 8
  %22 = extractvalue { ptr, i32 } %20, 1
  store i32 %22, ptr %9, align 4
  call void @__cxa_free_exception(ptr %15) #3
  call void @llvm.lifetime.end.p0(i64 8, ptr %7) #3
  br label %23

23:                                               ; preds = %19
  %24 = load ptr, ptr %8, align 8
  %25 = load i32, ptr %9, align 4
  %26 = insertvalue { ptr, i32 } poison, ptr %24, 0
  %27 = insertvalue { ptr, i32 } %26, i32 %25, 1
  resume { ptr, i32 } %27
}